target datalayout = "e-m:e-p270:32:32-p271:32:32-p272:64:64-i64:64-i128:128-f80:128-n8:16:32:64-S128"
target triple = "x86_64-pc-linux-gnu"

@ff_tx_tab_131072_double = global [32769 x double] zeroinitializer, align 16

; Function Attrs: cold nounwind optsize uwtable
define internal void @ff_tx_init_tab_131072_double() #0 {
  %1 = alloca double, align 8
  %2 = alloca ptr, align 8
  %3 = alloca i32, align 4
  call void @llvm.lifetime.start.p0(i64 8, ptr %1) #10
  store double 0x3F0921FB54442D18, ptr %1, align 8, !tbaa !29
  call void @llvm.lifetime.start.p0(i64 8, ptr %2) #10
  store ptr @ff_tx_tab_131072_double, ptr %2, align 8, !tbaa !38
  call void @llvm.lifetime.start.p0(i64 4, ptr %3) #10
  store i32 0, ptr %3, align 4, !tbaa !4
  br label %4

4:                                                ; preds = %16, %0
  %5 = load i32, ptr %3, align 4, !tbaa !4
  %6 = icmp slt i32 %5, 32768
  br i1 %6, label %8, label %7

7:                                                ; preds = %4
  call void @llvm.lifetime.end.p0(i64 4, ptr %3) #10
  br label %19

8:                                                ; preds = %4
  %9 = load i32, ptr %3, align 4, !tbaa !4
  %10 = sitofp i32 %9 to double
  %11 = load double, ptr %1, align 8, !tbaa !29
  %12 = fmul nsz double %10, %11
  %13 = call nsz double @llvm.cos.f64(double %12)
  %14 = load ptr, ptr %2, align 8, !tbaa !38
  %15 = getelementptr inbounds nuw double, ptr %14, i32 1
  store ptr %15, ptr %2, align 8, !tbaa !38
  store double %13, ptr %14, align 8, !tbaa !29
  br label %16

16:                                               ; preds = %8
  %17 = load i32, ptr %3, align 4, !tbaa !4
  %18 = add nsw i32 %17, 1
  store i32 %18, ptr %3, align 4, !tbaa !4
  br label %4, !llvm.loop !54

19:                                               ; preds = %7
  %20 = load ptr, ptr %2, align 8, !tbaa !38
  store double 0.000000e+00, ptr %20, align 8, !tbaa !29
  call void @llvm.lifetime.end.p0(i64 8, ptr %2) #10
  call void @llvm.lifetime.end.p0(i64 8, ptr %1) #10
  ret void
}